; ModuleID = '9/1624.c'
source_filename = "9/1624.c"
target datalayout = "e-m:e-p270:32:32-p271:32:32-p272:64:64-i64:64-f80:128-n8:16:32:64-S128"
target triple = "x86_64-pc-linux-gnu"

%struct.ren = type { [10 x i8], i32 }

@.str = private unnamed_addr constant [3 x i8] c"%d\00", align 1
@.str.1 = private unnamed_addr constant [6 x i8] c"%s %d\00", align 1
@.str.2 = private unnamed_addr constant [4 x i8] c"%s\0A\00", align 1

; Function Attrs: noinline nounwind uwtable
define dso_local i32 @main() #0 {
  %1 = alloca i32, align 4
  %2 = alloca i32, align 4
  %3 = alloca [100 x %struct.ren], align 16
  %4 = alloca %struct.ren, align 4
  %5 = alloca i32, align 4
  %6 = alloca i32, align 4
  store i32 0, i32* %1, align 4
  %7 = call i32 (i8*, ...) @__isoc99_scanf(i8* getelementptr inbounds ([3 x i8], [3 x i8]* @.str, i64 0, i64 0), i32* %2)
  store i32 0, i32* %5, align 4
  br label %8

8:                                                ; preds = %23, %0
  %9 = load i32, i32* %5, align 4
  %10 = load i32, i32* %2, align 4
  %11 = icmp slt i32 %9, %10
  br i1 %11, label %12, label %26

12:                                               ; preds = %8
  %13 = load i32, i32* %5, align 4
  %14 = sext i32 %13 to i64
  %15 = getelementptr inbounds [100 x %struct.ren], [100 x %struct.ren]* %3, i64 0, i64 %14
  %16 = getelementptr inbounds %struct.ren, %struct.ren* %15, i32 0, i32 0
  %17 = getelementptr inbounds [10 x i8], [10 x i8]* %16, i64 0, i64 0
  %18 = load i32, i32* %5, align 4
  %19 = sext i32 %18 to i64
  %20 = getelementptr inbounds [100 x %struct.ren], [100 x %struct.ren]* %3, i64 0, i64 %19
  %21 = getelementptr inbounds %struct.ren, %struct.ren* %20, i32 0, i32 1
  %22 = call i32 (i8*, ...) @__isoc99_scanf(i8* getelementptr inbounds ([6 x i8], [6 x i8]* @.str.1, i64 0, i64 0), i8* %17, i32* %21)
  br label %23

23:                                               ; preds = %12
  %24 = load i32, i32* %5, align 4
  %25 = add nsw i32 %24, 1
  store i32 %25, i32* %5, align 4
  br label %8

26:                                               ; preds = %8
  store i32 0, i32* %5, align 4
  br label %27

27:                                               ; preds = %87, %26
  %28 = load i32, i32* %5, align 4
  %29 = load i32, i32* %2, align 4
  %30 = sub nsw i32 %29, 1
  %31 = icmp slt i32 %28, %30
  br i1 %31, label %32, label %90

32:                                               ; preds = %27
  store i32 0, i32* %6, align 4
  br label %33

33:                                               ; preds = %83, %32
  %34 = load i32, i32* %6, align 4
  %35 = load i32, i32* %2, align 4
  %36 = sub nsw i32 %35, 1
  %37 = load i32, i32* %5, align 4
  %38 = sub nsw i32 %36, %37
  %39 = icmp slt i32 %34, %38
  br i1 %39, label %40, label %86

40:                                               ; preds = %33
  %41 = load i32, i32* %6, align 4
  %42 = sext i32 %41 to i64
  %43 = getelementptr inbounds [100 x %struct.ren], [100 x %struct.ren]* %3, i64 0, i64 %42
  %44 = getelementptr inbounds %struct.ren, %struct.ren* %43, i32 0, i32 1
  %45 = load i32, i32* %44, align 4
  %46 = load i32, i32* %6, align 4
  %47 = add nsw i32 %46, 1
  %48 = sext i32 %47 to i64
  %49 = getelementptr inbounds [100 x %struct.ren], [100 x %struct.ren]* %3, i64 0, i64 %48
  %50 = getelementptr inbounds %struct.ren, %struct.ren* %49, i32 0, i32 1
  %51 = load i32, i32* %50, align 4
  %52 = icmp slt i32 %45, %51
  br i1 %52, label %53, label %82

53:                                               ; preds = %40
  %54 = load i32, i32* %6, align 4
  %55 = add nsw i32 %54, 1
  %56 = sext i32 %55 to i64
  %57 = getelementptr inbounds [100 x %struct.ren], [100 x %struct.ren]* %3, i64 0, i64 %56
  %58 = getelementptr inbounds %struct.ren, %struct.ren* %57, i32 0, i32 1
  %59 = load i32, i32* %58, align 4
  %60 = icmp sge i32 %59, 60
  br i1 %60, label %61, label %82

61:                                               ; preds = %53
  %62 = load i32, i32* %6, align 4
  %63 = sext i32 %62 to i64
  %64 = getelementptr inbounds [100 x %struct.ren], [100 x %struct.ren]* %3, i64 0, i64 %63
  %65 = bitcast %struct.ren* %4 to i8*
  %66 = bitcast %struct.ren* %64 to i8*
  call void @llvm.memcpy.p0i8.p0i8.i64(i8* align 4 %65, i8* align 16 %66, i64 16, i1 false)
  %67 = load i32, i32* %6, align 4
  %68 = sext i32 %67 to i64
  %69 = getelementptr inbounds [100 x %struct.ren], [100 x %struct.ren]* %3, i64 0, i64 %68
  %70 = load i32, i32* %6, align 4
  %71 = add nsw i32 %70, 1
  %72 = sext i32 %71 to i64
  %73 = getelementptr inbounds [100 x %struct.ren], [100 x %struct.ren]* %3, i64 0, i64 %72
  %74 = bitcast %struct.ren* %69 to i8*
  %75 = bitcast %struct.ren* %73 to i8*
  call void @llvm.memcpy.p0i8.p0i8.i64(i8* align 16 %74, i8* align 16 %75, i64 16, i1 false)
  %76 = load i32, i32* %6, align 4
  %77 = add nsw i32 %76, 1
  %78 = sext i32 %77 to i64
  %79 = getelementptr inbounds [100 x %struct.ren], [100 x %struct.ren]* %3, i64 0, i64 %78
  %80 = bitcast %struct.ren* %79 to i8*
  %81 = bitcast %struct.ren* %4 to i8*
  call void @llvm.memcpy.p0i8.p0i8.i64(i8* align 16 %80, i8* align 4 %81, i64 16, i1 false)
  br label %82

82:                                               ; preds = %61, %53, %40
  br label %83

83:                                               ; preds = %82
  %84 = load i32, i32* %6, align 4
  %85 = add nsw i32 %84, 1
  store i32 %85, i32* %6, align 4
  br label %33

86:                                               ; preds = %33
  br label %87

87:                                               ; preds = %86
  %88 = load i32, i32* %5, align 4
  %89 = add nsw i32 %88, 1
  store i32 %89, i32* %5, align 4
  br label %27

90:                                               ; preds = %27
  store i32 0, i32* %5, align 4
  br label %91

91:                                               ; preds = %102, %90
  %92 = load i32, i32* %5, align 4
  %93 = load i32, i32* %2, align 4
  %94 = icmp slt i32 %92, %93
  br i1 %94, label %95, label %105

95:                                               ; preds = %91
  %96 = load i32, i32* %5, align 4
  %97 = sext i32 %96 to i64
  %98 = getelementptr inbounds [100 x %struct.ren], [100 x %struct.ren]* %3, i64 0, i64 %97
  %99 = getelementptr inbounds %struct.ren, %struct.ren* %98, i32 0, i32 0
  %100 = getelementptr inbounds [10 x i8], [10 x i8]* %99, i64 0, i64 0
  %101 = call i32 (i8*, ...) @printf(i8* getelementptr inbounds ([4 x i8], [4 x i8]* @.str.2, i64 0, i64 0), i8* %100)
  br label %102

102:                                              ; preds = %95
  %103 = load i32, i32* %5, align 4
  %104 = add nsw i32 %103, 1
  store i32 %104, i32* %5, align 4
  br label %91

105:                                              ; preds = %91
  ret i32 0
}

declare dso_local i32 @__isoc99_scanf(i8*, ...) #1

; Function Attrs: argmemonly nounwind willreturn
declare void @llvm.memcpy.p0i8.p0i8.i64(i8* noalias nocapture writeonly, i8* noalias nocapture readonly, i64, i1 immarg) #2

declare dso_local i32 @printf(i8*, ...) #1


!llvm.module.flags = !{!0}
!llvm.ident = !{!1}

!0 = !{i32 1, !"wchar_size", i32 4}
!1 = !{!"clang version 10.0.0-4ubuntu1 "}
