; ModuleID = 'source-C-CXX/8/1624.c'
source_filename = "source-C-CXX/8/1624.c"
target datalayout = "e-m:e-p270:32:32-p271:32:32-p272:64:64-i64:64-f80:128-n8:16:32:64-S128"
target triple = "x86_64-pc-linux-gnu"

%struct.ren = type { [10 x i8], i32 }

@.str = private unnamed_addr constant [3 x i8] c"%d\00", align 1
@.str.1 = private unnamed_addr constant [6 x i8] c"%s %d\00", align 1

; Function Attrs: nofree nounwind sspstrong uwtable
define dso_local i32 @main() local_unnamed_addr #0 {
  %1 = alloca i32, align 4
  %2 = alloca [100 x %struct.ren], align 16
  %3 = alloca %struct.ren, align 4
  %4 = bitcast i32* %1 to i8*
  call void @llvm.lifetime.start.p0i8(i64 4, i8* nonnull %4) #5
  %5 = getelementptr inbounds [100 x %struct.ren], [100 x %struct.ren]* %2, i64 0, i64 0, i32 0, i64 0
  call void @llvm.lifetime.start.p0i8(i64 1600, i8* nonnull %5) #5
  %6 = getelementptr inbounds %struct.ren, %struct.ren* %3, i64 0, i32 0, i64 0
  call void @llvm.lifetime.start.p0i8(i64 16, i8* nonnull %6)
  %7 = call i32 (i8*, ...) @__isoc99_scanf(i8* getelementptr inbounds ([3 x i8], [3 x i8]* @.str, i64 0, i64 0), i32* nonnull %1)
  %8 = load i32, i32* %1, align 4, !tbaa !5
  %9 = icmp sgt i32 %8, 0
  br i1 %9, label %14, label %60

10:                                               ; preds = %14
  %11 = icmp sgt i32 %20, 1
  br i1 %11, label %12, label %31

12:                                               ; preds = %10
  %13 = add nsw i32 %20, -1
  br label %23

14:                                               ; preds = %0, %14
  %15 = phi i64 [ %19, %14 ], [ 0, %0 ]
  %16 = getelementptr inbounds [100 x %struct.ren], [100 x %struct.ren]* %2, i64 0, i64 %15, i32 0, i64 0
  %17 = getelementptr inbounds [100 x %struct.ren], [100 x %struct.ren]* %2, i64 0, i64 %15, i32 1
  %18 = call i32 (i8*, ...) @__isoc99_scanf(i8* getelementptr inbounds ([6 x i8], [6 x i8]* @.str.1, i64 0, i64 0), i8* nonnull %16, i32* nonnull %17)
  %19 = add nuw nsw i64 %15, 1
  %20 = load i32, i32* %1, align 4, !tbaa !5
  %21 = sext i32 %20 to i64
  %22 = icmp slt i64 %19, %21
  br i1 %22, label %14, label %10, !llvm.loop !9

23:                                               ; preds = %12, %48
  %24 = phi i32 [ %13, %12 ], [ %50, %48 ]
  %25 = phi i32 [ 0, %12 ], [ %49, %48 ]
  %26 = xor i32 %25, -1
  %27 = add i32 %20, %26
  %28 = icmp sgt i32 %27, 0
  br i1 %28, label %29, label %48

29:                                               ; preds = %23
  %30 = zext i32 %24 to i64
  br label %33

31:                                               ; preds = %48, %10
  %32 = icmp sgt i32 %20, 0
  br i1 %32, label %52, label %60

33:                                               ; preds = %29, %46
  %34 = phi i64 [ 0, %29 ], [ %37, %46 ]
  %35 = getelementptr inbounds [100 x %struct.ren], [100 x %struct.ren]* %2, i64 0, i64 %34, i32 1
  %36 = load i32, i32* %35, align 4, !tbaa !11
  %37 = add nuw nsw i64 %34, 1
  %38 = getelementptr inbounds [100 x %struct.ren], [100 x %struct.ren]* %2, i64 0, i64 %37, i32 1
  %39 = load i32, i32* %38, align 4, !tbaa !11
  %40 = icmp slt i32 %36, %39
  %41 = icmp sgt i32 %39, 59
  %42 = and i1 %40, %41
  br i1 %42, label %43, label %46

43:                                               ; preds = %33
  %44 = getelementptr inbounds [100 x %struct.ren], [100 x %struct.ren]* %2, i64 0, i64 %34, i32 0, i64 0
  call void @llvm.memcpy.p0i8.p0i8.i64(i8* noundef nonnull align 4 dereferenceable(16) %6, i8* noundef nonnull align 16 dereferenceable(16) %44, i64 16, i1 false), !tbaa.struct !13
  %45 = getelementptr inbounds [100 x %struct.ren], [100 x %struct.ren]* %2, i64 0, i64 %37, i32 0, i64 0
  call void @llvm.memcpy.p0i8.p0i8.i64(i8* noundef nonnull align 16 dereferenceable(16) %44, i8* noundef nonnull align 16 dereferenceable(16) %45, i64 16, i1 false), !tbaa.struct !13
  call void @llvm.memcpy.p0i8.p0i8.i64(i8* noundef nonnull align 16 dereferenceable(16) %45, i8* noundef nonnull align 4 dereferenceable(16) %6, i64 16, i1 false), !tbaa.struct !13
  br label %46

46:                                               ; preds = %33, %43
  %47 = icmp eq i64 %37, %30
  br i1 %47, label %48, label %33, !llvm.loop !15

48:                                               ; preds = %46, %23
  %49 = add nuw nsw i32 %25, 1
  %50 = add i32 %24, -1
  %51 = icmp eq i32 %49, %13
  br i1 %51, label %31, label %23, !llvm.loop !16

52:                                               ; preds = %31, %52
  %53 = phi i64 [ %56, %52 ], [ 0, %31 ]
  %54 = getelementptr inbounds [100 x %struct.ren], [100 x %struct.ren]* %2, i64 0, i64 %53, i32 0, i64 0
  %55 = call i32 @puts(i8* nonnull %54)
  %56 = add nuw nsw i64 %53, 1
  %57 = load i32, i32* %1, align 4, !tbaa !5
  %58 = sext i32 %57 to i64
  %59 = icmp slt i64 %56, %58
  br i1 %59, label %52, label %60, !llvm.loop !17

60:                                               ; preds = %52, %0, %31
  call void @llvm.lifetime.end.p0i8(i64 16, i8* nonnull %6)
  call void @llvm.lifetime.end.p0i8(i64 1600, i8* nonnull %5) #5
  call void @llvm.lifetime.end.p0i8(i64 4, i8* nonnull %4) #5
  ret i32 0
}

; Function Attrs: argmemonly mustprogress nofree nosync nounwind willreturn
declare void @llvm.lifetime.start.p0i8(i64 immarg, i8* nocapture) #1

; Function Attrs: nofree nounwind
declare noundef i32 @__isoc99_scanf(i8* nocapture noundef readonly, ...) local_unnamed_addr #2

; Function Attrs: argmemonly mustprogress nofree nounwind willreturn
declare void @llvm.memcpy.p0i8.p0i8.i64(i8* noalias nocapture writeonly, i8* noalias nocapture readonly, i64, i1 immarg) #3

; Function Attrs: argmemonly mustprogress nofree nosync nounwind willreturn
declare void @llvm.lifetime.end.p0i8(i64 immarg, i8* nocapture) #1

; Function Attrs: nofree nounwind
declare noundef i32 @puts(i8* nocapture noundef readonly) local_unnamed_addr #4


!llvm.module.flags = !{!0, !1, !2, !3}
!llvm.ident = !{!4}

!0 = !{i32 1, !"wchar_size", i32 4}
!1 = !{i32 7, !"PIC Level", i32 2}
!2 = !{i32 7, !"PIE Level", i32 2}
!3 = !{i32 7, !"uwtable", i32 1}
!4 = !{!"clang version 13.0.0"}
!5 = !{!6, !6, i64 0}
!6 = !{!"int", !7, i64 0}
!7 = !{!"omnipotent char", !8, i64 0}
!8 = !{!"Simple C/C++ TBAA"}
!9 = distinct !{!9, !10}
!10 = !{!"llvm.loop.mustprogress"}
!11 = !{!12, !6, i64 12}
!12 = !{!"ren", !7, i64 0, !6, i64 12}
!13 = !{i64 0, i64 10, !14, i64 12, i64 4, !5}
!14 = !{!7, !7, i64 0}
!15 = distinct !{!15, !10}
!16 = distinct !{!16, !10}
!17 = distinct !{!17, !10}
